target datalayout = "e-m:e-p270:32:32-p271:32:32-p272:64:64-i64:64-i128:128-f80:128-n8:16:32:64-S128"
target triple = "x86_64-pc-linux-gnu"

%struct.DdManager = type { %struct.DdNode, ptr, ptr, ptr, ptr, ptr, ptr, ptr, i32, i32, double, double, double, i32, i32, i32, i32, i32, i32, ptr, ptr, %struct.DdSubtable, i32, i32, i32, i32, i32, i32, i32, double, i32, i32, i32, ptr, i64, double, i32, ptr, ptr, ptr, ptr, ptr, ptr, ptr, i32, ptr, ptr, ptr, ptr, ptr, ptr, i32, i32, i32, double, i32, i32, i32, i32, double, double, i32, i32, i32, i32, i32, i32, i32, i32, i32, ptr, ptr, i32, i32, i32, i32, i32, i32, ptr, ptr, ptr, ptr, ptr, ptr, ptr, ptr, i32, i64, i64, i64, i32, i64, i64, double, double, double, double, double, double, i32, ptr, ptr, i64 }
%struct.DdNode = type { i32, i32, ptr, %union.anon, i64 }
%union.anon = type { %struct.DdChildren }
%struct.DdChildren = type { ptr, ptr }
%struct.DdSubtable = type { ptr, i32, i32, i32, i32, i32, i32, i32, i32, i32, i32, i32 }

; Function Attrs: nounwind uwtable
define double @Cudd_AverageDistance(ptr noundef %0) #0 {
  %2 = alloca double, align 8
  %3 = alloca ptr, align 8
  %4 = alloca double, align 8
  %5 = alloca double, align 8
  %6 = alloca double, align 8
  %7 = alloca double, align 8
  %8 = alloca double, align 8
  %9 = alloca double, align 8
  %10 = alloca i32, align 4
  %11 = alloca i32, align 4
  %12 = alloca i32, align 4
  %13 = alloca i32, align 4
  %14 = alloca i64, align 8
  %15 = alloca ptr, align 8
  %16 = alloca ptr, align 8
  %17 = alloca ptr, align 8
  store ptr %0, ptr %3, align 8
  %18 = load ptr, ptr %3, align 8
  %19 = getelementptr inbounds %struct.DdManager, ptr %18, i32 0, i32 0
  store ptr %19, ptr %17, align 8
  %20 = load ptr, ptr %3, align 8
  %21 = getelementptr inbounds %struct.DdManager, ptr %20, i32 0, i32 15
  %22 = load i32, ptr %21, align 8
  store i32 %22, ptr %13, align 4
  %23 = load i32, ptr %13, align 4
  %24 = icmp eq i32 %23, 0
  br i1 %24, label %25, label %26

25:                                               ; preds = %1
  store double 0.000000e+00, ptr %2, align 8
  br label %221

26:                                               ; preds = %1
  store double 0.000000e+00, ptr %4, align 8
  store double 0.000000e+00, ptr %5, align 8
  store double 0.000000e+00, ptr %8, align 8
  store double 0.000000e+00, ptr %9, align 8
  store i32 0, ptr %10, align 4
  br label %27

27:                                               ; preds = %150, %26
  %28 = load i32, ptr %10, align 4
  %29 = load i32, ptr %13, align 4
  %30 = icmp slt i32 %28, %29
  br i1 %30, label %31, label %153

31:                                               ; preds = %27
  %32 = load ptr, ptr %3, align 8
  %33 = getelementptr inbounds %struct.DdManager, ptr %32, i32 0, i32 19
  %34 = load ptr, ptr %33, align 8
  %35 = load i32, ptr %10, align 4
  %36 = sext i32 %35 to i64
  %37 = getelementptr inbounds %struct.DdSubtable, ptr %34, i64 %36
  %38 = getelementptr inbounds %struct.DdSubtable, ptr %37, i32 0, i32 0
  %39 = load ptr, ptr %38, align 8
  store ptr %39, ptr %16, align 8
  store double 0.000000e+00, ptr %6, align 8
  store double 0.000000e+00, ptr %7, align 8
  %40 = load ptr, ptr %3, align 8
  %41 = getelementptr inbounds %struct.DdManager, ptr %40, i32 0, i32 19
  %42 = load ptr, ptr %41, align 8
  %43 = load i32, ptr %10, align 4
  %44 = sext i32 %43 to i64
  %45 = getelementptr inbounds %struct.DdSubtable, ptr %42, i64 %44
  %46 = getelementptr inbounds %struct.DdSubtable, ptr %45, i32 0, i32 2
  %47 = load i32, ptr %46, align 4
  store i32 %47, ptr %12, align 4
  store i32 0, ptr %11, align 4
  br label %48

48:                                               ; preds = %140, %31
  %49 = load i32, ptr %11, align 4
  %50 = load i32, ptr %12, align 4
  %51 = icmp slt i32 %49, %50
  br i1 %51, label %52, label %143

52:                                               ; preds = %48
  %53 = load ptr, ptr %16, align 8
  %54 = load i32, ptr %11, align 4
  %55 = sext i32 %54 to i64
  %56 = getelementptr inbounds ptr, ptr %53, i64 %55
  %57 = load ptr, ptr %56, align 8
  store ptr %57, ptr %15, align 8
  br label %58

58:                                               ; preds = %135, %52
  %59 = load ptr, ptr %15, align 8
  %60 = load ptr, ptr %17, align 8
  %61 = icmp ne ptr %59, %60
  br i1 %61, label %62, label %139

62:                                               ; preds = %58
  %63 = load ptr, ptr %15, align 8
  %64 = ptrtoint ptr %63 to i64
  %65 = load ptr, ptr %15, align 8
  %66 = getelementptr inbounds %struct.DdNode, ptr %65, i32 0, i32 3
  %67 = getelementptr inbounds %struct.DdChildren, ptr %66, i32 0, i32 0
  %68 = load ptr, ptr %67, align 8
  %69 = ptrtoint ptr %68 to i64
  %70 = sub nsw i64 %64, %69
  store i64 %70, ptr %14, align 8
  %71 = load i64, ptr %14, align 8
  %72 = icmp slt i64 %71, 0
  br i1 %72, label %73, label %76

73:                                               ; preds = %62
  %74 = load i64, ptr %14, align 8
  %75 = sub nsw i64 0, %74
  br label %78

76:                                               ; preds = %62
  %77 = load i64, ptr %14, align 8
  br label %78

78:                                               ; preds = %76, %73
  %79 = phi i64 [ %75, %73 ], [ %77, %76 ]
  %80 = sitofp i64 %79 to double
  %81 = load double, ptr %6, align 8
  %82 = fadd double %81, %80
  store double %82, ptr %6, align 8
  %83 = load ptr, ptr %15, align 8
  %84 = ptrtoint ptr %83 to i64
  %85 = load ptr, ptr %15, align 8
  %86 = getelementptr inbounds %struct.DdNode, ptr %85, i32 0, i32 3
  %87 = getelementptr inbounds %struct.DdChildren, ptr %86, i32 0, i32 1
  %88 = load ptr, ptr %87, align 8
  %89 = ptrtoint ptr %88 to i64
  %90 = and i64 %89, -2
  %91 = inttoptr i64 %90 to ptr
  %92 = ptrtoint ptr %91 to i64
  %93 = sub nsw i64 %84, %92
  store i64 %93, ptr %14, align 8
  %94 = load i64, ptr %14, align 8
  %95 = icmp slt i64 %94, 0
  br i1 %95, label %96, label %99

96:                                               ; preds = %78
  %97 = load i64, ptr %14, align 8
  %98 = sub nsw i64 0, %97
  br label %101

99:                                               ; preds = %78
  %100 = load i64, ptr %14, align 8
  br label %101

101:                                              ; preds = %99, %96
  %102 = phi i64 [ %98, %96 ], [ %100, %99 ]
  %103 = sitofp i64 %102 to double
  %104 = load double, ptr %6, align 8
  %105 = fadd double %104, %103
  store double %105, ptr %6, align 8
  %106 = load double, ptr %8, align 8
  %107 = fadd double %106, 2.000000e+00
  store double %107, ptr %8, align 8
  %108 = load ptr, ptr %15, align 8
  %109 = getelementptr inbounds %struct.DdNode, ptr %108, i32 0, i32 2
  %110 = load ptr, ptr %109, align 8
  %111 = load ptr, ptr %17, align 8
  %112 = icmp ne ptr %110, %111
  br i1 %112, label %113, label %135

113:                                              ; preds = %101
  %114 = load ptr, ptr %15, align 8
  %115 = ptrtoint ptr %114 to i64
  %116 = load ptr, ptr %15, align 8
  %117 = getelementptr inbounds %struct.DdNode, ptr %116, i32 0, i32 2
  %118 = load ptr, ptr %117, align 8
  %119 = ptrtoint ptr %118 to i64
  %120 = sub nsw i64 %115, %119
  store i64 %120, ptr %14, align 8
  %121 = load i64, ptr %14, align 8
  %122 = icmp slt i64 %121, 0
  br i1 %122, label %123, label %126

123:                                              ; preds = %113
  %124 = load i64, ptr %14, align 8
  %125 = sub nsw i64 0, %124
  br label %128

126:                                              ; preds = %113
  %127 = load i64, ptr %14, align 8
  br label %128

128:                                              ; preds = %126, %123
  %129 = phi i64 [ %125, %123 ], [ %127, %126 ]
  %130 = sitofp i64 %129 to double
  %131 = load double, ptr %7, align 8
  %132 = fadd double %131, %130
  store double %132, ptr %7, align 8
  %133 = load double, ptr %9, align 8
  %134 = fadd double %133, 1.000000e+00
  store double %134, ptr %9, align 8
  br label %135

135:                                              ; preds = %128, %101
  %136 = load ptr, ptr %15, align 8
  %137 = getelementptr inbounds %struct.DdNode, ptr %136, i32 0, i32 2
  %138 = load ptr, ptr %137, align 8
  store ptr %138, ptr %15, align 8
  br label %58, !llvm.loop !73

139:                                              ; preds = %58
  br label %140

140:                                              ; preds = %139
  %141 = load i32, ptr %11, align 4
  %142 = add nsw i32 %141, 1
  store i32 %142, ptr %11, align 4
  br label %48, !llvm.loop !74

143:                                              ; preds = %48
  %144 = load double, ptr %6, align 8
  %145 = load double, ptr %4, align 8
  %146 = fadd double %145, %144
  store double %146, ptr %4, align 8
  %147 = load double, ptr %7, align 8
  %148 = load double, ptr %5, align 8
  %149 = fadd double %148, %147
  store double %149, ptr %5, align 8
  br label %150

150:                                              ; preds = %143
  %151 = load i32, ptr %10, align 4
  %152 = add nsw i32 %151, 1
  store i32 %152, ptr %10, align 4
  br label %27, !llvm.loop !75

153:                                              ; preds = %27
  %154 = load ptr, ptr %3, align 8
  %155 = getelementptr inbounds %struct.DdManager, ptr %154, i32 0, i32 21
  %156 = getelementptr inbounds %struct.DdSubtable, ptr %155, i32 0, i32 0
  %157 = load ptr, ptr %156, align 8
  store ptr %157, ptr %16, align 8
  store double 0.000000e+00, ptr %7, align 8
  %158 = load ptr, ptr %3, align 8
  %159 = getelementptr inbounds %struct.DdManager, ptr %158, i32 0, i32 21
  %160 = getelementptr inbounds %struct.DdSubtable, ptr %159, i32 0, i32 2
  %161 = load i32, ptr %160, align 4
  store i32 %161, ptr %12, align 4
  store i32 0, ptr %11, align 4
  br label %162

162:                                              ; preds = %207, %153
  %163 = load i32, ptr %11, align 4
  %164 = load i32, ptr %12, align 4
  %165 = icmp slt i32 %163, %164
  br i1 %165, label %166, label %210

166:                                              ; preds = %162
  %167 = load ptr, ptr %16, align 8
  %168 = load i32, ptr %11, align 4
  %169 = sext i32 %168 to i64
  %170 = getelementptr inbounds ptr, ptr %167, i64 %169
  %171 = load ptr, ptr %170, align 8
  store ptr %171, ptr %15, align 8
  br label %172

172:                                              ; preds = %202, %166
  %173 = load ptr, ptr %15, align 8
  %174 = icmp ne ptr %173, null
  br i1 %174, label %175, label %206

175:                                              ; preds = %172
  %176 = load ptr, ptr %15, align 8
  %177 = getelementptr inbounds %struct.DdNode, ptr %176, i32 0, i32 2
  %178 = load ptr, ptr %177, align 8
  %179 = icmp ne ptr %178, null
  br i1 %179, label %180, label %202

180:                                              ; preds = %175
  %181 = load ptr, ptr %15, align 8
  %182 = ptrtoint ptr %181 to i64
  %183 = load ptr, ptr %15, align 8
  %184 = getelementptr inbounds %struct.DdNode, ptr %183, i32 0, i32 2
  %185 = load ptr, ptr %184, align 8
  %186 = ptrtoint ptr %185 to i64
  %187 = sub nsw i64 %182, %186
  store i64 %187, ptr %14, align 8
  %188 = load i64, ptr %14, align 8
  %189 = icmp slt i64 %188, 0
  br i1 %189, label %190, label %193

190:                                              ; preds = %180
  %191 = load i64, ptr %14, align 8
  %192 = sub nsw i64 0, %191
  br label %195

193:                                              ; preds = %180
  %194 = load i64, ptr %14, align 8
  br label %195

195:                                              ; preds = %193, %190
  %196 = phi i64 [ %192, %190 ], [ %194, %193 ]
  %197 = sitofp i64 %196 to double
  %198 = load double, ptr %7, align 8
  %199 = fadd double %198, %197
  store double %199, ptr %7, align 8
  %200 = load double, ptr %9, align 8
  %201 = fadd double %200, 1.000000e+00
  store double %201, ptr %9, align 8
  br label %202

202:                                              ; preds = %195, %175
  %203 = load ptr, ptr %15, align 8
  %204 = getelementptr inbounds %struct.DdNode, ptr %203, i32 0, i32 2
  %205 = load ptr, ptr %204, align 8
  store ptr %205, ptr %15, align 8
  br label %172, !llvm.loop !76

206:                                              ; preds = %172
  br label %207

207:                                              ; preds = %206
  %208 = load i32, ptr %11, align 4
  %209 = add nsw i32 %208, 1
  store i32 %209, ptr %11, align 4
  br label %162, !llvm.loop !77

210:                                              ; preds = %162
  %211 = load double, ptr %7, align 8
  %212 = load double, ptr %5, align 8
  %213 = fadd double %212, %211
  store double %213, ptr %5, align 8
  %214 = load double, ptr %4, align 8
  %215 = load double, ptr %5, align 8
  %216 = fadd double %214, %215
  %217 = load double, ptr %8, align 8
  %218 = load double, ptr %9, align 8
  %219 = fadd double %217, %218
  %220 = fdiv double %216, %219
  store double %220, ptr %2, align 8
  br label %221

221:                                              ; preds = %210, %25
  %222 = load double, ptr %2, align 8
  ret double %222
}