; Function Attrs: nofree norecurse nosync nounwind memory(read, inaccessiblemem: none) uwtable
define double @Cudd_AverageDistance(ptr noundef readonly %0) local_unnamed_addr #14 {
  %2 = getelementptr inbounds nuw i8, ptr %0, i64 136
  %3 = load i32, ptr %2, align 8
  %4 = icmp eq i32 %3, 0
  br i1 %4, label %65, label %.preheader

.preheader:                                       ; preds = %1
  %5 = icmp sgt i32 %3, 0
  br i1 %5, label %.lr.ph120, label %._crit_edge121

.lr.ph120:                                        ; preds = %.preheader
  %6 = getelementptr inbounds nuw i8, ptr %0, i64 152
  %7 = load ptr, ptr %6, align 8
  %wide.trip.count151 = zext nneg i32 %3 to i64
  br label %8

8:                                                ; preds = %.lr.ph120, %._crit_edge110
  %indvars.iv148 = phi i64 [ 0, %.lr.ph120 ], [ %indvars.iv.next149, %._crit_edge110 ]
  %.068119 = phi double [ 0.000000e+00, %.lr.ph120 ], [ %41, %._crit_edge110 ]
  %.072117 = phi double [ 0.000000e+00, %.lr.ph120 ], [ %.173.lcssa, %._crit_edge110 ]
  %.074116 = phi double [ 0.000000e+00, %.lr.ph120 ], [ %.175.lcssa, %._crit_edge110 ]
  %.085115 = phi double [ 0.000000e+00, %.lr.ph120 ], [ %42, %._crit_edge110 ]
  %9 = getelementptr inbounds nuw %struct.DdSubtable, ptr %7, i64 %indvars.iv148
  %10 = load ptr, ptr %9, align 8
  %11 = getelementptr inbounds nuw i8, ptr %9, i64 12
  %12 = load i32, ptr %11, align 4
  %13 = icmp sgt i32 %12, 0
  br i1 %13, label %.lr.ph109.preheader, label %._crit_edge110

.lr.ph109.preheader:                              ; preds = %8
  %wide.trip.count = zext nneg i32 %12 to i64
  br label %.lr.ph109

.lr.ph109:                                        ; preds = %.lr.ph109.preheader, %._crit_edge
  %indvars.iv = phi i64 [ 0, %.lr.ph109.preheader ], [ %indvars.iv.next, %._crit_edge ]
  %.173106 = phi double [ %.072117, %.lr.ph109.preheader ], [ %.2.lcssa, %._crit_edge ]
  %.175105 = phi double [ %.074116, %.lr.ph109.preheader ], [ %.276.lcssa, %._crit_edge ]
  %.077104 = phi double [ 0.000000e+00, %.lr.ph109.preheader ], [ %.178.lcssa, %._crit_edge ]
  %.083103 = phi double [ 0.000000e+00, %.lr.ph109.preheader ], [ %.184.lcssa, %._crit_edge ]
  %14 = getelementptr inbounds nuw ptr, ptr %10, i64 %indvars.iv
  %.06793 = load ptr, ptr %14, align 8
  %.not9194 = icmp eq ptr %.06793, %0
  br i1 %.not9194, label %._crit_edge, label %.lr.ph

.lr.ph:                                           ; preds = %.lr.ph109, %34
  %.06799 = phi ptr [ %33, %34 ], [ %.06793, %.lr.ph109 ]
  %.298 = phi double [ %40, %34 ], [ %.173106, %.lr.ph109 ]
  %.27697 = phi double [ %31, %34 ], [ %.175105, %.lr.ph109 ]
  %.17896 = phi double [ %39, %34 ], [ %.077104, %.lr.ph109 ]
  %.18495 = phi double [ %30, %34 ], [ %.083103, %.lr.ph109 ]
  %15 = ptrtoint ptr %.06799 to i64
  %16 = getelementptr inbounds nuw i8, ptr %.06799, i64 16
  %17 = load ptr, ptr %16, align 8
  %18 = ptrtoint ptr %17 to i64
  %19 = sub nsw i64 %15, %18
  %20 = tail call i64 @llvm.abs.i64(i64 %19, i1 true)
  %21 = uitofp nneg i64 %20 to double
  %22 = fadd double %.18495, %21
  %23 = getelementptr inbounds nuw i8, ptr %.06799, i64 24
  %24 = load ptr, ptr %23, align 8
  %25 = ptrtoint ptr %24 to i64
  %26 = and i64 %25, -2
  %27 = sub nsw i64 %15, %26
  %28 = tail call i64 @llvm.abs.i64(i64 %27, i1 true)
  %29 = uitofp nneg i64 %28 to double
  %30 = fadd double %22, %29
  %31 = fadd double %.27697, 2.000000e+00
  %32 = getelementptr inbounds nuw i8, ptr %.06799, i64 8
  %33 = load ptr, ptr %32, align 8
  %.not92 = icmp eq ptr %33, %0
  br i1 %.not92, label %._crit_edge, label %34

34:                                               ; preds = %.lr.ph
  %35 = ptrtoint ptr %33 to i64
  %36 = sub nsw i64 %15, %35
  %37 = tail call i64 @llvm.abs.i64(i64 %36, i1 true)
  %38 = uitofp nneg i64 %37 to double
  %39 = fadd double %.17896, %38
  %40 = fadd double %.298, 1.000000e+00
  br label %.lr.ph

._crit_edge:                                      ; preds = %.lr.ph, %.lr.ph109
  %.184.lcssa = phi double [ %.083103, %.lr.ph109 ], [ %30, %.lr.ph ]
  %.178.lcssa = phi double [ %.077104, %.lr.ph109 ], [ %.17896, %.lr.ph ]
  %.276.lcssa = phi double [ %.175105, %.lr.ph109 ], [ %31, %.lr.ph ]
  %.2.lcssa = phi double [ %.173106, %.lr.ph109 ], [ %.298, %.lr.ph ]
  %indvars.iv.next = add nuw nsw i64 %indvars.iv, 1
  %exitcond.not = icmp eq i64 %indvars.iv.next, %wide.trip.count
  br i1 %exitcond.not, label %._crit_edge110, label %.lr.ph109, !llvm.loop !64

._crit_edge110:                                   ; preds = %._crit_edge, %8
  %.083.lcssa = phi double [ 0.000000e+00, %8 ], [ %.184.lcssa, %._crit_edge ]
  %.077.lcssa = phi double [ 0.000000e+00, %8 ], [ %.178.lcssa, %._crit_edge ]
  %.175.lcssa = phi double [ %.074116, %8 ], [ %.276.lcssa, %._crit_edge ]
  %.173.lcssa = phi double [ %.072117, %8 ], [ %.2.lcssa, %._crit_edge ]
  %41 = fadd double %.068119, %.083.lcssa
  %42 = fadd double %.085115, %.077.lcssa
  %indvars.iv.next149 = add nuw nsw i64 %indvars.iv148, 1
  %exitcond152.not = icmp eq i64 %indvars.iv.next149, %wide.trip.count151
  br i1 %exitcond152.not, label %._crit_edge121, label %8, !llvm.loop !65

._crit_edge121:                                   ; preds = %._crit_edge110, %.preheader
  %.085.lcssa = phi double [ 0.000000e+00, %.preheader ], [ %42, %._crit_edge110 ]
  %.074.lcssa = phi double [ 0.000000e+00, %.preheader ], [ %.175.lcssa, %._crit_edge110 ]
  %.072.lcssa = phi double [ 0.000000e+00, %.preheader ], [ %.173.lcssa, %._crit_edge110 ]
  %.068.lcssa = phi double [ 0.000000e+00, %.preheader ], [ %41, %._crit_edge110 ]
  %43 = getelementptr inbounds nuw i8, ptr %0, i64 168
  %44 = load ptr, ptr %43, align 8
  %45 = getelementptr inbounds nuw i8, ptr %0, i64 180
  %46 = load i32, ptr %45, align 4
  %47 = icmp sgt i32 %46, 0
  br i1 %47, label %.lr.ph140.preheader, label %._crit_edge141

.lr.ph140.preheader:                              ; preds = %._crit_edge121
  %wide.trip.count156 = zext nneg i32 %46 to i64
  br label %.lr.ph140

.lr.ph140:                                        ; preds = %.lr.ph140.preheader, %._crit_edge133
  %indvars.iv153 = phi i64 [ 0, %.lr.ph140.preheader ], [ %indvars.iv.next154, %._crit_edge133 ]
  %.4137 = phi double [ %.072.lcssa, %.lr.ph140.preheader ], [ %.5.lcssa, %._crit_edge133 ]
  %.380136 = phi double [ 0.000000e+00, %.lr.ph140.preheader ], [ %.481.lcssa, %._crit_edge133 ]
  %48 = getelementptr inbounds nuw ptr, ptr %44, i64 %indvars.iv153
  %.1126 = load ptr, ptr %48, align 8
  %.not127 = icmp eq ptr %.1126, null
  br i1 %.not127, label %._crit_edge133, label %.lr.ph132.preheader

.lr.ph132.preheader:                              ; preds = %.lr.ph140
  %49 = getelementptr inbounds nuw i8, ptr %.1126, i64 8
  %50 = load ptr, ptr %49, align 8
  %.not90173 = icmp eq ptr %50, null
  br i1 %.not90173, label %._crit_edge133, label %.lr.ph132

.lr.ph132:                                        ; preds = %.lr.ph132.preheader, %.lr.ph132
  %51 = phi ptr [ %60, %.lr.ph132 ], [ %50, %.lr.ph132.preheader ]
  %.481128176 = phi double [ %57, %.lr.ph132 ], [ %.380136, %.lr.ph132.preheader ]
  %.5129175 = phi double [ %58, %.lr.ph132 ], [ %.4137, %.lr.ph132.preheader ]
  %.1130174 = phi ptr [ %51, %.lr.ph132 ], [ %.1126, %.lr.ph132.preheader ]
  %52 = ptrtoint ptr %.1130174 to i64
  %53 = ptrtoint ptr %51 to i64
  %54 = sub nsw i64 %52, %53
  %55 = tail call i64 @llvm.abs.i64(i64 %54, i1 true)
  %56 = uitofp nneg i64 %55 to double
  %57 = fadd double %.481128176, %56
  %58 = fadd double %.5129175, 1.000000e+00
  %59 = getelementptr inbounds nuw i8, ptr %51, i64 8
  %60 = load ptr, ptr %59, align 8
  %.not90 = icmp eq ptr %60, null
  br i1 %.not90, label %._crit_edge133, label %.lr.ph132, !llvm.loop !66

._crit_edge133:                                   ; preds = %.lr.ph132, %.lr.ph132.preheader, %.lr.ph140
  %.481.lcssa = phi double [ %.380136, %.lr.ph140 ], [ %.380136, %.lr.ph132.preheader ], [ %57, %.lr.ph132 ]
  %.5.lcssa = phi double [ %.4137, %.lr.ph140 ], [ %.4137, %.lr.ph132.preheader ], [ %58, %.lr.ph132 ]
  %indvars.iv.next154 = add nuw nsw i64 %indvars.iv153, 1
  %exitcond157.not = icmp eq i64 %indvars.iv.next154, %wide.trip.count156
  br i1 %exitcond157.not, label %._crit_edge141, label %.lr.ph140, !llvm.loop !67

._crit_edge141:                                   ; preds = %._crit_edge133, %._crit_edge121
  %.380.lcssa = phi double [ 0.000000e+00, %._crit_edge121 ], [ %.481.lcssa, %._crit_edge133 ]
  %.4.lcssa = phi double [ %.072.lcssa, %._crit_edge121 ], [ %.5.lcssa, %._crit_edge133 ]
  %61 = fadd double %.085.lcssa, %.380.lcssa
  %62 = fadd double %.068.lcssa, %61
  %63 = fadd double %.074.lcssa, %.4.lcssa
  %64 = fdiv double %62, %63
  br label %65

65:                                               ; preds = %1, %._crit_edge141
  %.0 = phi double [ %64, %._crit_edge141 ], [ 0.000000e+00, %1 ]
  ret double %.0
}